target datalayout = "e-m:e-p270:32:32-p271:32:32-p272:64:64-i64:64-i128:128-f80:128-n8:16:32:64-S128"
target triple = "x86_64-pc-linux-gnu"

%"struct.p2t::Point" = type { double, double, %"class.std::vector" }
%"class.std::vector" = type { %"struct.std::_Vector_base" }
%"struct.std::_Vector_base" = type { %"struct.std::_Vector_base<p2t::Edge *, std::allocator<p2t::Edge *>>::_Vector_impl" }
%"struct.std::_Vector_base<p2t::Edge *, std::allocator<p2t::Edge *>>::_Vector_impl" = type { %"struct.std::_Vector_base<p2t::Edge *, std::allocator<p2t::Edge *>>::_Vector_impl_data" }
%"struct.std::_Vector_base<p2t::Edge *, std::allocator<p2t::Edge *>>::_Vector_impl_data" = type { ptr, ptr, ptr }

; Function Attrs: mustprogress nounwind uwtable
define hidden noundef zeroext i1 @_ZN3p2t10InScanAreaERKNS_5PointES2_S2_S2_(ptr noundef nonnull align 8 dereferenceable(40) %0, ptr noundef nonnull align 8 dereferenceable(40) %1, ptr noundef nonnull align 8 dereferenceable(40) %2, ptr noundef nonnull align 8 dereferenceable(40) %3) #2 {
  %5 = alloca i1, align 1
  %6 = alloca ptr, align 8
  %7 = alloca ptr, align 8
  %8 = alloca ptr, align 8
  %9 = alloca ptr, align 8
  %10 = alloca double, align 8
  %11 = alloca i32, align 4
  %12 = alloca double, align 8
  store ptr %0, ptr %6, align 8
  store ptr %1, ptr %7, align 8
  store ptr %2, ptr %8, align 8
  store ptr %3, ptr %9, align 8
  call void @llvm.lifetime.start.p0(i64 8, ptr %10) #14
  %13 = load ptr, ptr %6, align 8
  %14 = getelementptr inbounds nuw %"struct.p2t::Point", ptr %13, i32 0, i32 0
  %15 = load double, ptr %14, align 8
  %16 = load ptr, ptr %7, align 8
  %17 = getelementptr inbounds nuw %"struct.p2t::Point", ptr %16, i32 0, i32 0
  %18 = load double, ptr %17, align 8
  %19 = fsub double %15, %18
  %20 = load ptr, ptr %9, align 8
  %21 = getelementptr inbounds nuw %"struct.p2t::Point", ptr %20, i32 0, i32 1
  %22 = load double, ptr %21, align 8
  %23 = load ptr, ptr %7, align 8
  %24 = getelementptr inbounds nuw %"struct.p2t::Point", ptr %23, i32 0, i32 1
  %25 = load double, ptr %24, align 8
  %26 = fsub double %22, %25
  %27 = load ptr, ptr %9, align 8
  %28 = getelementptr inbounds nuw %"struct.p2t::Point", ptr %27, i32 0, i32 0
  %29 = load double, ptr %28, align 8
  %30 = load ptr, ptr %7, align 8
  %31 = getelementptr inbounds nuw %"struct.p2t::Point", ptr %30, i32 0, i32 0
  %32 = load double, ptr %31, align 8
  %33 = fsub double %29, %32
  %34 = load ptr, ptr %6, align 8
  %35 = getelementptr inbounds nuw %"struct.p2t::Point", ptr %34, i32 0, i32 1
  %36 = load double, ptr %35, align 8
  %37 = load ptr, ptr %7, align 8
  %38 = getelementptr inbounds nuw %"struct.p2t::Point", ptr %37, i32 0, i32 1
  %39 = load double, ptr %38, align 8
  %40 = fsub double %36, %39
  %41 = fmul double %33, %40
  %42 = fneg double %41
  %43 = call double @llvm.fmuladd.f64(double %19, double %26, double %42)
  store double %43, ptr %10, align 8
  %44 = load double, ptr %10, align 8
  %45 = fcmp oge double %44, 0xBD719799812DEA11
  br i1 %45, label %46, label %47

46:                                               ; preds = %4
  store i1 false, ptr %5, align 1
  store i32 1, ptr %11, align 4
  br label %84

47:                                               ; preds = %4
  call void @llvm.lifetime.start.p0(i64 8, ptr %12) #14
  %48 = load ptr, ptr %6, align 8
  %49 = getelementptr inbounds nuw %"struct.p2t::Point", ptr %48, i32 0, i32 0
  %50 = load double, ptr %49, align 8
  %51 = load ptr, ptr %8, align 8
  %52 = getelementptr inbounds nuw %"struct.p2t::Point", ptr %51, i32 0, i32 0
  %53 = load double, ptr %52, align 8
  %54 = fsub double %50, %53
  %55 = load ptr, ptr %9, align 8
  %56 = getelementptr inbounds nuw %"struct.p2t::Point", ptr %55, i32 0, i32 1
  %57 = load double, ptr %56, align 8
  %58 = load ptr, ptr %8, align 8
  %59 = getelementptr inbounds nuw %"struct.p2t::Point", ptr %58, i32 0, i32 1
  %60 = load double, ptr %59, align 8
  %61 = fsub double %57, %60
  %62 = load ptr, ptr %9, align 8
  %63 = getelementptr inbounds nuw %"struct.p2t::Point", ptr %62, i32 0, i32 0
  %64 = load double, ptr %63, align 8
  %65 = load ptr, ptr %8, align 8
  %66 = getelementptr inbounds nuw %"struct.p2t::Point", ptr %65, i32 0, i32 0
  %67 = load double, ptr %66, align 8
  %68 = fsub double %64, %67
  %69 = load ptr, ptr %6, align 8
  %70 = getelementptr inbounds nuw %"struct.p2t::Point", ptr %69, i32 0, i32 1
  %71 = load double, ptr %70, align 8
  %72 = load ptr, ptr %8, align 8
  %73 = getelementptr inbounds nuw %"struct.p2t::Point", ptr %72, i32 0, i32 1
  %74 = load double, ptr %73, align 8
  %75 = fsub double %71, %74
  %76 = fmul double %68, %75
  %77 = fneg double %76
  %78 = call double @llvm.fmuladd.f64(double %54, double %61, double %77)
  store double %78, ptr %12, align 8
  %79 = load double, ptr %12, align 8
  %80 = fcmp ole double %79, 0x3D719799812DEA11
  br i1 %80, label %81, label %82

81:                                               ; preds = %47
  store i1 false, ptr %5, align 1
  store i32 1, ptr %11, align 4
  br label %83

82:                                               ; preds = %47
  store i1 true, ptr %5, align 1
  store i32 1, ptr %11, align 4
  br label %83

83:                                               ; preds = %82, %81
  call void @llvm.lifetime.end.p0(i64 8, ptr %12) #14
  br label %84

84:                                               ; preds = %83, %46
  call void @llvm.lifetime.end.p0(i64 8, ptr %10) #14
  %85 = load i1, ptr %5, align 1
  ret i1 %85
}