; Function Attrs: mustprogress nofree norecurse nosync nounwind willreturn memory(argmem: read) uwtable
define hidden noundef zeroext i1 @_ZN3p2t10InScanAreaERKNS_5PointES2_S2_S2_(ptr noundef nonnull readonly align 8 captures(none) dereferenceable(40) %0, ptr noundef nonnull readonly align 8 captures(none) dereferenceable(40) %1, ptr noundef nonnull readonly align 8 captures(none) dereferenceable(40) %2, ptr noundef nonnull readonly align 8 captures(none) dereferenceable(40) %3) local_unnamed_addr #0 {
  %5 = load double, ptr %0, align 8
  %6 = load double, ptr %1, align 8
  %7 = fsub double %5, %6
  %8 = getelementptr inbounds nuw i8, ptr %3, i64 8
  %9 = load double, ptr %8, align 8
  %10 = getelementptr inbounds nuw i8, ptr %1, i64 8
  %11 = load double, ptr %10, align 8
  %12 = fsub double %9, %11
  %13 = load double, ptr %3, align 8
  %14 = fsub double %13, %6
  %15 = getelementptr inbounds nuw i8, ptr %0, i64 8
  %16 = load double, ptr %15, align 8
  %17 = fsub double %16, %11
  %18 = fneg double %17
  %19 = fmul double %14, %18
  %20 = tail call double @llvm.fmuladd.f64(double %7, double %12, double %19)
  %21 = fcmp ult double %20, 0xBD719799812DEA11
  br i1 %21, label %22, label %34

22:                                               ; preds = %4
  %23 = load double, ptr %2, align 8
  %24 = fsub double %5, %23
  %25 = getelementptr inbounds nuw i8, ptr %2, i64 8
  %26 = load double, ptr %25, align 8
  %27 = fsub double %9, %26
  %28 = fsub double %13, %23
  %29 = fsub double %16, %26
  %30 = fneg double %29
  %31 = fmul double %28, %30
  %32 = tail call double @llvm.fmuladd.f64(double %24, double %27, double %31)
  %33 = fcmp ugt double %32, 0x3D719799812DEA11
  br label %34

34:                                               ; preds = %4, %22
  %.0 = phi i1 [ %33, %22 ], [ false, %4 ]
  ret i1 %.0
}